; Function Attrs: nounwind uwtable
define dso_local void @onig_region_free(ptr noundef captures(address_is_null) %0, i32 noundef %1) local_unnamed_addr #4 {
  %.not = icmp eq ptr %0, null
  br i1 %.not, label %21, label %3

3:                                                ; preds = %2
  %4 = load i32, ptr %0, align 8, !tbaa !27
  %5 = icmp sgt i32 %4, 0
  br i1 %5, label %6, label %15

6:                                                ; preds = %3
  %7 = getelementptr inbounds nuw i8, ptr %0, i64 8
  %8 = load ptr, ptr %7, align 8, !tbaa !23
  %.not11 = icmp eq ptr %8, null
  br i1 %.not11, label %10, label %9

9:                                                ; preds = %6
  tail call void @free(ptr noundef nonnull %8) #30
  br label %10

10:                                               ; preds = %9, %6
  %11 = getelementptr inbounds nuw i8, ptr %0, i64 16
  %12 = load ptr, ptr %11, align 8, !tbaa !22
  %.not12 = icmp eq ptr %12, null
  br i1 %.not12, label %14, label %13

13:                                               ; preds = %10
  tail call void @free(ptr noundef nonnull %12) #30
  br label %14

14:                                               ; preds = %13, %10
  store i32 0, ptr %0, align 8, !tbaa !27
  br label %15

15:                                               ; preds = %14, %3
  %16 = getelementptr inbounds nuw i8, ptr %0, i64 24
  %17 = load ptr, ptr %16, align 8, !tbaa !16
  %18 = icmp eq ptr %17, null
  br i1 %18, label %history_root_free.exit, label %19

19:                                               ; preds = %15
  tail call fastcc void @history_tree_free(ptr noundef %17)
  store ptr null, ptr %16, align 8, !tbaa !16
  br label %history_root_free.exit

history_root_free.exit:                           ; preds = %15, %19
  %.not13 = icmp eq i32 %1, 0
  br i1 %.not13, label %21, label %20

20:                                               ; preds = %history_root_free.exit
  tail call void @free(ptr noundef nonnull %0) #30
  br label %21

21:                                               ; preds = %history_root_free.exit, %20, %2
  ret void
}